; ModuleID = '45/2872.c'
source_filename = "45/2872.c"
target datalayout = "e-m:e-p270:32:32-p271:32:32-p272:64:64-i64:64-f80:128-n8:16:32:64-S128"
target triple = "x86_64-pc-linux-gnu"

@.str = private unnamed_addr constant [6 x i8] c"%s %s\00", align 1
@.str.1 = private unnamed_addr constant [3 x i8] c"%d\00", align 1

; Function Attrs: noinline nounwind uwtable
define dso_local i32 @main() #0 {
  %1 = alloca i32, align 4
  %2 = alloca i32, align 4
  %3 = alloca i32, align 4
  %4 = alloca i32, align 4
  %5 = alloca [52 x i8], align 16
  %6 = alloca [52 x i8], align 16
  store i32 0, i32* %1, align 4
  %7 = getelementptr inbounds [52 x i8], [52 x i8]* %5, i64 0, i64 0
  %8 = getelementptr inbounds [52 x i8], [52 x i8]* %6, i64 0, i64 0
  %9 = call i32 (i8*, ...) @__isoc99_scanf(i8* getelementptr inbounds ([6 x i8], [6 x i8]* @.str, i64 0, i64 0), i8* %7, i8* %8)
  store i32 0, i32* %2, align 4
  br label %10

10:                                               ; preds = %51, %0
  %11 = load i32, i32* %2, align 4
  %12 = sext i32 %11 to i64
  %13 = getelementptr inbounds [52 x i8], [52 x i8]* %6, i64 0, i64 0
  %14 = call i64 @strlen(i8* %13) #3
  %15 = getelementptr inbounds [52 x i8], [52 x i8]* %5, i64 0, i64 0
  %16 = call i64 @strlen(i8* %15) #3
  %17 = sub i64 %14, %16
  %18 = add i64 %17, 1
  %19 = icmp ult i64 %12, %18
  br i1 %19, label %20, label %54

20:                                               ; preds = %10
  store i32 0, i32* %4, align 4
  store i32 0, i32* %3, align 4
  br label %21

21:                                               ; preds = %43, %20
  %22 = load i32, i32* %3, align 4
  %23 = sext i32 %22 to i64
  %24 = getelementptr inbounds [52 x i8], [52 x i8]* %5, i64 0, i64 0
  %25 = call i64 @strlen(i8* %24) #3
  %26 = icmp ult i64 %23, %25
  br i1 %26, label %27, label %46

27:                                               ; preds = %21
  %28 = load i32, i32* %3, align 4
  %29 = sext i32 %28 to i64
  %30 = getelementptr inbounds [52 x i8], [52 x i8]* %5, i64 0, i64 %29
  %31 = load i8, i8* %30, align 1
  %32 = sext i8 %31 to i32
  %33 = load i32, i32* %2, align 4
  %34 = load i32, i32* %3, align 4
  %35 = add nsw i32 %33, %34
  %36 = sext i32 %35 to i64
  %37 = getelementptr inbounds [52 x i8], [52 x i8]* %6, i64 0, i64 %36
  %38 = load i8, i8* %37, align 1
  %39 = sext i8 %38 to i32
  %40 = icmp ne i32 %32, %39
  br i1 %40, label %41, label %42

41:                                               ; preds = %27
  store i32 1, i32* %4, align 4
  br label %46

42:                                               ; preds = %27
  br label %43

43:                                               ; preds = %42
  %44 = load i32, i32* %3, align 4
  %45 = add nsw i32 %44, 1
  store i32 %45, i32* %3, align 4
  br label %21

46:                                               ; preds = %41, %21
  %47 = load i32, i32* %4, align 4
  %48 = icmp eq i32 %47, 0
  br i1 %48, label %49, label %50

49:                                               ; preds = %46
  br label %54

50:                                               ; preds = %46
  br label %51

51:                                               ; preds = %50
  %52 = load i32, i32* %2, align 4
  %53 = add nsw i32 %52, 1
  store i32 %53, i32* %2, align 4
  br label %10

54:                                               ; preds = %49, %10
  %55 = load i32, i32* %2, align 4
  %56 = call i32 (i8*, ...) @printf(i8* getelementptr inbounds ([3 x i8], [3 x i8]* @.str.1, i64 0, i64 0), i32 %55)
  ret i32 0
}

declare dso_local i32 @__isoc99_scanf(i8*, ...) #1

; Function Attrs: nounwind readonly
declare dso_local i64 @strlen(i8*) #2

declare dso_local i32 @printf(i8*, ...) #1


!llvm.module.flags = !{!0}
!llvm.ident = !{!1}

!0 = !{i32 1, !"wchar_size", i32 4}
!1 = !{!"clang version 10.0.0-4ubuntu1 "}
